target datalayout = "e-m:e-p270:32:32-p271:32:32-p272:64:64-i64:64-i128:128-f80:128-n8:16:32:64-S128"
target triple = "x86_64-pc-linux-gnu"

%class.symbol = type { ptr }
%class.decl = type { %class.ast, %class.symbol, ptr }
%class.ast = type { i32, i32, i32, i32 }
%class.vector.43 = type { ptr }
%class.arith_util = type { ptr, ptr }
%class.decl_info = type <{ i32, i32, %class.vector.43, i8, [7 x i8] }>
%class.zstring = type { %class.buffer }
%class.buffer = type { ptr, i32, i32, [64 x i8] }
%"class.seq_util::str" = type <{ ptr, ptr, i32, [4 x i8] }>
%class.app = type { %class.expr, ptr, i32, %struct.app_flags, [0 x ptr] }
%class.expr = type { %class.ast }
%struct.app_flags = type <{ i16, i8, i8 }>
%class.anon.53 = type { ptr, ptr, ptr, ptr, ptr }

; Function Attrs: mustprogress nounwind uwtable
define linkonce_odr hidden noundef zeroext i1 @_ZNK9decl_info10is_decl_ofEii(ptr noundef nonnull align 8 dereferenceable(17) %0, i32 noundef %1, i32 noundef %2) #6 comdat align 2 {
  %4 = alloca ptr, align 8
  %5 = alloca i32, align 4
  %6 = alloca i32, align 4
  store ptr %0, ptr %4, align 8, !tbaa !188
  store i32 %1, ptr %5, align 4, !tbaa !55
  store i32 %2, ptr %6, align 4, !tbaa !55
  %7 = load ptr, ptr %4, align 8
  %8 = getelementptr inbounds nuw %class.decl_info, ptr %7, i32 0, i32 0
  %9 = load i32, ptr %8, align 8, !tbaa !308
  %10 = load i32, ptr %5, align 4, !tbaa !55
  %11 = icmp eq i32 %9, %10
  br i1 %11, label %12, label %17

12:                                               ; preds = %3
  %13 = load i32, ptr %6, align 4, !tbaa !55
  %14 = getelementptr inbounds nuw %class.decl_info, ptr %7, i32 0, i32 1
  %15 = load i32, ptr %14, align 4, !tbaa !311
  %16 = icmp eq i32 %13, %15
  br label %17

17:                                               ; preds = %12, %3
  %18 = phi i1 [ false, %3 ], [ %16, %12 ]
  ret i1 %18
}

; Function Attrs: mustprogress uwtable
define linkonce_odr hidden noundef zeroext i1 @_ZNK4decl10is_decl_ofEii(ptr noundef nonnull align 8 dereferenceable(32) %0, i32 noundef %1, i32 noundef %2) #4 comdat align 2 {
  %4 = alloca ptr, align 8
  %5 = alloca i32, align 4
  %6 = alloca i32, align 4
  store ptr %0, ptr %4, align 8, !tbaa !56
  store i32 %1, ptr %5, align 4, !tbaa !55
  store i32 %2, ptr %6, align 4, !tbaa !55
  %7 = load ptr, ptr %4, align 8
  %8 = getelementptr inbounds nuw %class.decl, ptr %7, i32 0, i32 2
  %9 = load ptr, ptr %8, align 8, !tbaa !69
  %10 = icmp ne ptr %9, null
  br i1 %10, label %11, label %17

11:                                               ; preds = %3
  %12 = getelementptr inbounds nuw %class.decl, ptr %7, i32 0, i32 2
  %13 = load ptr, ptr %12, align 8, !tbaa !69
  %14 = load i32, ptr %5, align 4, !tbaa !55
  %15 = load i32, ptr %6, align 4, !tbaa !55
  %16 = call noundef zeroext i1 @_ZNK9decl_info10is_decl_ofEii(ptr noundef nonnull align 8 dereferenceable(17) %13, i32 noundef %14, i32 noundef %15)
  br label %17

17:                                               ; preds = %11, %3
  %18 = phi i1 [ false, %3 ], [ %16, %11 ]
  ret i1 %18
}

; Function Attrs: mustprogress uwtable
define linkonce_odr hidden noundef zeroext i1 @_ZNK3app9is_app_ofEii(ptr noundef nonnull align 8 dereferenceable(32) %0, i32 noundef %1, i32 noundef %2) #4 comdat align 2 {
  %4 = alloca ptr, align 8
  %5 = alloca i32, align 4
  %6 = alloca i32, align 4
  store ptr %0, ptr %4, align 8, !tbaa !227
  store i32 %1, ptr %5, align 4, !tbaa !55
  store i32 %2, ptr %6, align 4, !tbaa !55
  %7 = load ptr, ptr %4, align 8
  %8 = getelementptr inbounds nuw %class.app, ptr %7, i32 0, i32 1
  %9 = load ptr, ptr %8, align 8, !tbaa !247
  %10 = load i32, ptr %5, align 4, !tbaa !55
  %11 = load i32, ptr %6, align 4, !tbaa !55
  %12 = call noundef zeroext i1 @_ZNK4decl10is_decl_ofEii(ptr noundef nonnull align 8 dereferenceable(32) %9, i32 noundef %10, i32 noundef %11)
  ret i1 %12
}

; Function Attrs: mustprogress nounwind uwtable
define linkonce_odr hidden noundef i32 @_ZNK3ast8get_kindEv(ptr noundef nonnull align 4 dereferenceable(16) %0) #6 comdat align 2 {
  %2 = alloca ptr, align 8
  store ptr %0, ptr %2, align 8, !tbaa !50
  %3 = load ptr, ptr %2, align 8
  %4 = getelementptr inbounds nuw %class.ast, ptr %3, i32 0, i32 1
  %5 = load i32, ptr %4, align 4
  %6 = and i32 %5, 65535
  ret i32 %6
}

; Function Attrs: mustprogress nounwind uwtable
define linkonce_odr hidden noundef i32 @_ZNK6bufferIjLb1ELj16EE4sizeEv(ptr noundef nonnull align 8 dereferenceable(80) %0) #6 comdat align 2 {
  %2 = alloca ptr, align 8
  store ptr %0, ptr %2, align 8, !tbaa !386
  %3 = load ptr, ptr %2, align 8
  %4 = getelementptr inbounds nuw %class.buffer, ptr %3, i32 0, i32 1
  %5 = load i32, ptr %4, align 8, !tbaa !390
  ret i32 %5
}

; Function Attrs: mustprogress nounwind uwtable
define linkonce_odr hidden noundef ptr @_ZNK3app8get_declEv(ptr noundef nonnull align 8 dereferenceable(32) %0) #6 comdat align 2 {
  %2 = alloca ptr, align 8
  store ptr %0, ptr %2, align 8, !tbaa !227
  %3 = load ptr, ptr %2, align 8
  %4 = getelementptr inbounds nuw %class.app, ptr %3, i32 0, i32 1
  %5 = load ptr, ptr %4, align 8, !tbaa !247
  ret ptr %5
}

; Function Attrs: inlinehint mustprogress nounwind uwtable
define linkonce_odr hidden noundef zeroext i1 @_Z6is_appPK3ast(ptr noundef %0) #5 comdat {
  %2 = alloca ptr, align 8
  store ptr %0, ptr %2, align 8, !tbaa !50
  %3 = load ptr, ptr %2, align 8, !tbaa !50
  %4 = call noundef i32 @_ZNK3ast8get_kindEv(ptr noundef nonnull align 4 dereferenceable(16) %3)
  %5 = icmp eq i32 %4, 0
  ret i1 %5
}

; Function Attrs: mustprogress nounwind uwtable
define linkonce_odr hidden noundef ptr @_ZNK3app7get_argEj(ptr noundef nonnull align 8 dereferenceable(32) %0, i32 noundef %1) #6 comdat align 2 {
  %3 = alloca ptr, align 8
  %4 = alloca i32, align 4
  store ptr %0, ptr %3, align 8, !tbaa !227
  store i32 %1, ptr %4, align 4, !tbaa !55
  %5 = load ptr, ptr %3, align 8
  %6 = getelementptr inbounds nuw %class.app, ptr %5, i32 0, i32 4
  %7 = load i32, ptr %4, align 4, !tbaa !55
  %8 = zext i32 %7 to i64
  %9 = getelementptr inbounds nuw [0 x ptr], ptr %6, i64 0, i64 %8
  %10 = load ptr, ptr %9, align 8, !tbaa !229
  ret ptr %10
}

; Function Attrs: mustprogress nounwind uwtable
define linkonce_odr hidden noundef i32 @_ZNK3app12get_num_argsEv(ptr noundef nonnull align 8 dereferenceable(32) %0) #6 comdat align 2 {
  %2 = alloca ptr, align 8
  store ptr %0, ptr %2, align 8, !tbaa !227
  %3 = load ptr, ptr %2, align 8
  %4 = getelementptr inbounds nuw %class.app, ptr %3, i32 0, i32 2
  %5 = load i32, ptr %4, align 8, !tbaa !232
  ret i32 %5
}

; Function Attrs: inlinehint mustprogress nounwind uwtable
define linkonce_odr hidden noundef ptr @_Z6to_appPK3ast(ptr noundef %0) #5 comdat {
  %2 = alloca ptr, align 8
  store ptr %0, ptr %2, align 8, !tbaa !50
  %3 = load ptr, ptr %2, align 8, !tbaa !50
  ret ptr %3
}

; Function Attrs: mustprogress uwtable
define linkonce_odr hidden noundef zeroext i1 @_ZNK8seq_util3str10is_extractEPK4expr(ptr noundef nonnull align 8 dereferenceable(20) %0, ptr noundef %1) #4 comdat align 2 {
  %3 = alloca ptr, align 8
  %4 = alloca ptr, align 8
  store ptr %0, ptr %3, align 8, !tbaa !224
  store ptr %1, ptr %4, align 8, !tbaa !229
  %5 = load ptr, ptr %3, align 8
  %6 = load ptr, ptr %4, align 8, !tbaa !229
  %7 = getelementptr inbounds nuw %"class.seq_util::str", ptr %5, i32 0, i32 2
  %8 = load i32, ptr %7, align 8, !tbaa !226
  %9 = call noundef zeroext i1 @_Z9is_app_ofPK4exprii(ptr noundef %6, i32 noundef %8, i32 noundef 6)
  ret i1 %9
}

; Function Attrs: inlinehint mustprogress uwtable
define linkonce_odr hidden noundef zeroext i1 @_Z9is_app_ofPK4exprii(ptr noundef %0, i32 noundef %1, i32 noundef %2) #8 comdat {
  %4 = alloca ptr, align 8
  %5 = alloca i32, align 4
  %6 = alloca i32, align 4
  store ptr %0, ptr %4, align 8, !tbaa !229
  store i32 %1, ptr %5, align 4, !tbaa !55
  store i32 %2, ptr %6, align 4, !tbaa !55
  %7 = load ptr, ptr %4, align 8, !tbaa !229
  %8 = call noundef i32 @_ZNK3ast8get_kindEv(ptr noundef nonnull align 4 dereferenceable(16) %7)
  %9 = icmp eq i32 %8, 0
  br i1 %9, label %10, label %16

10:                                               ; preds = %3
  %11 = load ptr, ptr %4, align 8, !tbaa !229
  %12 = call noundef ptr @_Z6to_appPK3ast(ptr noundef %11)
  %13 = load i32, ptr %5, align 4, !tbaa !55
  %14 = load i32, ptr %6, align 4, !tbaa !55
  %15 = call noundef zeroext i1 @_ZNK3app9is_app_ofEii(ptr noundef nonnull align 8 dereferenceable(32) %12, i32 noundef %13, i32 noundef %14)
  br label %16

16:                                               ; preds = %10, %3
  %17 = phi i1 [ false, %3 ], [ %15, %10 ]
  ret i1 %17
}

; Function Attrs: mustprogress nounwind uwtable
define linkonce_odr hidden noundef i32 @_ZNK7zstring6lengthEv(ptr noundef nonnull align 8 dereferenceable(80) %0) #6 comdat align 2 {
  %2 = alloca ptr, align 8
  store ptr %0, ptr %2, align 8, !tbaa !189
  %3 = load ptr, ptr %2, align 8
  %4 = getelementptr inbounds nuw %class.zstring, ptr %3, i32 0, i32 0
  %5 = call noundef i32 @_ZNK6bufferIjLb1ELj16EE4sizeEv(ptr noundef nonnull align 8 dereferenceable(80) %4)
  ret i32 %5
}

; Function Attrs: mustprogress uwtable
define hidden noundef zeroext i1 @_ZNK8seq_util3str9is_stringEPK4exprR7zstring(ptr noundef nonnull align 8 dereferenceable(20) %0, ptr noundef %1, ptr noundef nonnull align 8 dereferenceable(80) %2) #4 align 2 {
  %4 = alloca ptr, align 8
  %5 = alloca ptr, align 8
  %6 = alloca ptr, align 8
  store ptr %0, ptr %4, align 8, !tbaa !224
  store ptr %1, ptr %5, align 8, !tbaa !229
  store ptr %2, ptr %6, align 8, !tbaa !189
  %7 = load ptr, ptr %4, align 8
  %8 = load ptr, ptr %5, align 8, !tbaa !229
  %9 = call noundef zeroext i1 @_Z6is_appPK3ast(ptr noundef %8)
  br i1 %9, label %10, label %16

10:                                               ; preds = %3
  %11 = load ptr, ptr %5, align 8, !tbaa !229
  %12 = call noundef ptr @_Z6to_appPK3ast(ptr noundef %11)
  %13 = call noundef ptr @_ZNK3app8get_declEv(ptr noundef nonnull align 8 dereferenceable(32) %12)
  %14 = load ptr, ptr %6, align 8, !tbaa !189
  %15 = call noundef zeroext i1 @_ZNK8seq_util3str9is_stringEPK9func_declR7zstring(ptr noundef nonnull align 8 dereferenceable(20) %7, ptr noundef %13, ptr noundef nonnull align 8 dereferenceable(80) %14)
  br label %16

16:                                               ; preds = %10, %3
  %17 = phi i1 [ false, %3 ], [ %15, %10 ]
  ret i1 %17
}

; Function Attrs: mustprogress uwtable
define linkonce_odr hidden noundef zeroext i1 @_ZNK8seq_util3str10is_extractEPK4exprRPS1_S5_S5_(ptr noundef nonnull align 8 dereferenceable(20) %0, ptr noundef %1, ptr noundef nonnull align 8 dereferenceable(8) %2, ptr noundef nonnull align 8 dereferenceable(8) %3, ptr noundef nonnull align 8 dereferenceable(8) %4) #4 comdat align 2 {
  %6 = alloca i1, align 1
  %7 = alloca ptr, align 8
  %8 = alloca ptr, align 8
  %9 = alloca ptr, align 8
  %10 = alloca ptr, align 8
  %11 = alloca ptr, align 8
  store ptr %0, ptr %7, align 8, !tbaa !224
  store ptr %1, ptr %8, align 8, !tbaa !229
  store ptr %2, ptr %9, align 8, !tbaa !228
  store ptr %3, ptr %10, align 8, !tbaa !228
  store ptr %4, ptr %11, align 8, !tbaa !228
  %12 = load ptr, ptr %7, align 8
  %13 = load ptr, ptr %8, align 8, !tbaa !229
  %14 = call noundef zeroext i1 @_ZNK8seq_util3str10is_extractEPK4expr(ptr noundef nonnull align 8 dereferenceable(20) %12, ptr noundef %13)
  br i1 %14, label %15, label %33

15:                                               ; preds = %5
  %16 = load ptr, ptr %8, align 8, !tbaa !229
  %17 = call noundef ptr @_Z6to_appPK3ast(ptr noundef %16)
  %18 = call noundef i32 @_ZNK3app12get_num_argsEv(ptr noundef nonnull align 8 dereferenceable(32) %17)
  %19 = icmp eq i32 %18, 3
  br i1 %19, label %20, label %33

20:                                               ; preds = %15
  %21 = load ptr, ptr %8, align 8, !tbaa !229
  %22 = call noundef ptr @_Z6to_appPK3ast(ptr noundef %21)
  %23 = call noundef ptr @_ZNK3app7get_argEj(ptr noundef nonnull align 8 dereferenceable(32) %22, i32 noundef 0)
  %24 = load ptr, ptr %9, align 8, !tbaa !228
  store ptr %23, ptr %24, align 8, !tbaa !229
  %25 = load ptr, ptr %8, align 8, !tbaa !229
  %26 = call noundef ptr @_Z6to_appPK3ast(ptr noundef %25)
  %27 = call noundef ptr @_ZNK3app7get_argEj(ptr noundef nonnull align 8 dereferenceable(32) %26, i32 noundef 1)
  %28 = load ptr, ptr %10, align 8, !tbaa !228
  store ptr %27, ptr %28, align 8, !tbaa !229
  %29 = load ptr, ptr %8, align 8, !tbaa !229
  %30 = call noundef ptr @_Z6to_appPK3ast(ptr noundef %29)
  %31 = call noundef ptr @_ZNK3app7get_argEj(ptr noundef nonnull align 8 dereferenceable(32) %30, i32 noundef 2)
  %32 = load ptr, ptr %11, align 8, !tbaa !228
  store ptr %31, ptr %32, align 8, !tbaa !229
  store i1 true, ptr %6, align 1
  br label %34

33:                                               ; preds = %15, %5
  store i1 false, ptr %6, align 1
  br label %34

34:                                               ; preds = %33, %20
  %35 = load i1, ptr %6, align 1
  ret i1 %35
}

; Function Attrs: mustprogress uwtable
define linkonce_odr hidden noundef zeroext i1 @_ZNK8seq_util3str5is_atEPK4expr(ptr noundef nonnull align 8 dereferenceable(20) %0, ptr noundef %1) #4 comdat align 2 {
  %3 = alloca ptr, align 8
  %4 = alloca ptr, align 8
  store ptr %0, ptr %3, align 8, !tbaa !224
  store ptr %1, ptr %4, align 8, !tbaa !229
  %5 = load ptr, ptr %3, align 8
  %6 = load ptr, ptr %4, align 8, !tbaa !229
  %7 = getelementptr inbounds nuw %"class.seq_util::str", ptr %5, i32 0, i32 2
  %8 = load i32, ptr %7, align 8, !tbaa !226
  %9 = call noundef zeroext i1 @_Z9is_app_ofPK4exprii(ptr noundef %6, i32 noundef %8, i32 noundef 8)
  ret i1 %9
}

; Function Attrs: mustprogress uwtable
define linkonce_odr hidden noundef zeroext i1 @_ZNK8seq_util3str7is_unitEPK4expr(ptr noundef nonnull align 8 dereferenceable(20) %0, ptr noundef %1) #4 comdat align 2 {
  %3 = alloca ptr, align 8
  %4 = alloca ptr, align 8
  store ptr %0, ptr %3, align 8, !tbaa !224
  store ptr %1, ptr %4, align 8, !tbaa !229
  %5 = load ptr, ptr %3, align 8
  %6 = load ptr, ptr %4, align 8, !tbaa !229
  %7 = getelementptr inbounds nuw %"class.seq_util::str", ptr %5, i32 0, i32 2
  %8 = load i32, ptr %7, align 8, !tbaa !226
  %9 = call noundef zeroext i1 @_Z9is_app_ofPK4exprii(ptr noundef %6, i32 noundef %8, i32 noundef 0)
  ret i1 %9
}

; Function Attrs: inlinehint mustprogress uwtable
define internal noundef i32 @"_ZZNK8seq_util3str10max_lengthEP4exprENK3$_0clES2_"(ptr noundef nonnull align 8 dereferenceable(40) %0, ptr noundef %1) #8 align 2 {
  %3 = alloca i32, align 4
  %4 = alloca ptr, align 8
  %5 = alloca ptr, align 8
  %6 = alloca %class.arith_util, align 8
  store ptr %0, ptr %4, align 8, !tbaa !275
  store ptr %1, ptr %5, align 8, !tbaa !229
  %7 = load ptr, ptr %4, align 8
  %8 = getelementptr inbounds nuw %class.anon.53, ptr %7, i32 0, i32 0
  %9 = load ptr, ptr %8, align 8, !tbaa !276
  %10 = load ptr, ptr %5, align 8, !tbaa !229
  %11 = call noundef zeroext i1 @_ZNK8seq_util3str8is_emptyEPK4expr(ptr noundef nonnull align 8 dereferenceable(20) %9, ptr noundef %10)
  br i1 %11, label %12, label %13

12:                                               ; preds = %2
  store i32 0, ptr %3, align 4
  br label %54

13:                                               ; preds = %2
  %14 = load ptr, ptr %5, align 8, !tbaa !229
  %15 = call noundef zeroext i1 @_ZNK8seq_util3str7is_unitEPK4expr(ptr noundef nonnull align 8 dereferenceable(20) %9, ptr noundef %14)
  br i1 %15, label %16, label %17

16:                                               ; preds = %13
  store i32 1, ptr %3, align 4
  br label %54

17:                                               ; preds = %13
  %18 = load ptr, ptr %5, align 8, !tbaa !229
  %19 = call noundef zeroext i1 @_ZNK8seq_util3str5is_atEPK4expr(ptr noundef nonnull align 8 dereferenceable(20) %9, ptr noundef %18)
  br i1 %19, label %20, label %21

20:                                               ; preds = %17
  store i32 1, ptr %3, align 4
  br label %54

21:                                               ; preds = %17
  %22 = load ptr, ptr %5, align 8, !tbaa !229
  %23 = getelementptr inbounds nuw %class.anon.53, ptr %7, i32 0, i32 1
  %24 = load ptr, ptr %23, align 8, !tbaa !279
  %25 = getelementptr inbounds nuw %class.anon.53, ptr %7, i32 0, i32 2
  %26 = load ptr, ptr %25, align 8, !tbaa !280
  %27 = call noundef zeroext i1 @_ZNK8seq_util3str10is_extractEPK4exprRPS1_S5_S5_(ptr noundef nonnull align 8 dereferenceable(20) %9, ptr noundef %22, ptr noundef nonnull align 8 dereferenceable(8) %5, ptr noundef nonnull align 8 dereferenceable(8) %24, ptr noundef nonnull align 8 dereferenceable(8) %26)
  br i1 %27, label %28, label %44

28:                                               ; preds = %21
  call void @llvm.lifetime.start.p0(i64 16, ptr %6) #3
  %29 = getelementptr inbounds nuw %"class.seq_util::str", ptr %9, i32 0, i32 1
  %30 = load ptr, ptr %29, align 8, !tbaa !236
  call void @_ZN10arith_utilC1ER11ast_manager(ptr noundef nonnull align 8 dereferenceable(16) %6, ptr noundef nonnull align 8 dereferenceable(976) %30)
  %31 = getelementptr inbounds nuw %class.anon.53, ptr %7, i32 0, i32 2
  %32 = load ptr, ptr %31, align 8, !tbaa !280
  %33 = load ptr, ptr %32, align 8, !tbaa !229
  %34 = getelementptr inbounds nuw %class.anon.53, ptr %7, i32 0, i32 3
  %35 = load ptr, ptr %34, align 8, !tbaa !281
  %36 = call noundef zeroext i1 @_ZNK10arith_util11is_unsignedEPK4exprRj(ptr noundef nonnull align 8 dereferenceable(16) %6, ptr noundef %33, ptr noundef nonnull align 4 dereferenceable(4) %35)
  br i1 %36, label %37, label %41

37:                                               ; preds = %28
  %38 = getelementptr inbounds nuw %class.anon.53, ptr %7, i32 0, i32 3
  %39 = load ptr, ptr %38, align 8, !tbaa !281
  %40 = load i32, ptr %39, align 4, !tbaa !55
  br label %42

41:                                               ; preds = %28
  br label %42

42:                                               ; preds = %41, %37
  %43 = phi i32 [ %40, %37 ], [ -1, %41 ]
  store i32 %43, ptr %3, align 4
  call void @llvm.lifetime.end.p0(i64 16, ptr %6) #3
  br label %54

44:                                               ; preds = %21
  %45 = load ptr, ptr %5, align 8, !tbaa !229
  %46 = getelementptr inbounds nuw %class.anon.53, ptr %7, i32 0, i32 4
  %47 = load ptr, ptr %46, align 8, !tbaa !282
  %48 = call noundef zeroext i1 @_ZNK8seq_util3str9is_stringEPK4exprR7zstring(ptr noundef nonnull align 8 dereferenceable(20) %9, ptr noundef %45, ptr noundef nonnull align 8 dereferenceable(80) %47)
  br i1 %48, label %49, label %53

49:                                               ; preds = %44
  %50 = getelementptr inbounds nuw %class.anon.53, ptr %7, i32 0, i32 4
  %51 = load ptr, ptr %50, align 8, !tbaa !282
  %52 = call noundef i32 @_ZNK7zstring6lengthEv(ptr noundef nonnull align 8 dereferenceable(80) %51)
  store i32 %52, ptr %3, align 4
  br label %54

53:                                               ; preds = %44
  store i32 -1, ptr %3, align 4
  br label %54

54:                                               ; preds = %53, %49, %42, %20, %16, %12
  %55 = load i32, ptr %3, align 4
  ret i32 %55
}