; Function Attrs: inlinehint mustprogress uwtable
define internal fastcc noundef i32 @"_ZZNK8seq_util3str10max_lengthEP4exprENK3$_0clES2_"(ptr noundef nonnull readonly align 8 captures(none) dereferenceable(40) %0, ptr noundef %1) unnamed_addr #12 align 2 {
  %3 = alloca %class.arith_util, align 8
  %4 = load ptr, ptr %0, align 8, !tbaa !247
  %5 = tail call noundef zeroext i1 @_ZNK8seq_util3str8is_emptyEPK4expr(ptr noundef nonnull align 8 dereferenceable(20) %4, ptr noundef %1)
  br i1 %5, label %_ZNK8seq_util3str9is_stringEPK4exprR7zstring.exit.thread, label %6

6:                                                ; preds = %2
  %7 = getelementptr inbounds nuw i8, ptr %4, i64 16
  %8 = load i32, ptr %7, align 8, !tbaa !206
  %9 = getelementptr inbounds nuw i8, ptr %1, i64 4
  %10 = load i32, ptr %9, align 4
  %11 = and i32 %10, 65535
  %12 = icmp eq i32 %11, 0
  br i1 %12, label %13, label %_ZNK8seq_util3str9is_stringEPK4exprR7zstring.exit.thread

13:                                               ; preds = %6
  %14 = getelementptr inbounds nuw i8, ptr %1, i64 16
  %15 = load ptr, ptr %14, align 8, !tbaa !186
  %16 = getelementptr inbounds nuw i8, ptr %15, i64 24
  %17 = load ptr, ptr %16, align 8, !tbaa !41
  %.not.i.i.i.i = icmp eq ptr %17, null
  br i1 %.not.i.i.i.i, label %_ZNK8seq_util3str9is_stringEPK4exprR7zstring.exit, label %_ZNK8seq_util3str7is_unitEPK4expr.exit

_ZNK8seq_util3str7is_unitEPK4expr.exit:           ; preds = %13
  %18 = load i32, ptr %17, align 8, !tbaa !44
  %19 = icmp eq i32 %18, %8
  %20 = getelementptr inbounds nuw i8, ptr %17, i64 4
  %21 = load i32, ptr %20, align 4
  %22 = icmp eq i32 %21, 0
  %23 = select i1 %19, i1 %22, i1 false
  br i1 %23, label %_ZNK8seq_util3str9is_stringEPK4exprR7zstring.exit.thread, label %_ZNK8seq_util3str5is_atEPK4expr.exit

_ZNK8seq_util3str5is_atEPK4expr.exit:             ; preds = %_ZNK8seq_util3str7is_unitEPK4expr.exit
  %24 = load i32, ptr %17, align 8, !tbaa !44
  %25 = icmp eq i32 %24, %8
  %26 = getelementptr inbounds nuw i8, ptr %17, i64 4
  %27 = load i32, ptr %26, align 4
  %28 = icmp eq i32 %27, 8
  %29 = select i1 %25, i1 %28, i1 false
  br i1 %29, label %_ZNK8seq_util3str9is_stringEPK4exprR7zstring.exit.thread, label %_ZNK8seq_util3str10is_extractEPK4expr.exit.i

_ZNK8seq_util3str10is_extractEPK4expr.exit.i:     ; preds = %_ZNK8seq_util3str5is_atEPK4expr.exit
  %.in = getelementptr inbounds nuw i8, ptr %0, i64 8
  %30 = load ptr, ptr %.in, align 8, !tbaa !253
  %31 = getelementptr inbounds nuw i8, ptr %0, i64 16
  %32 = load ptr, ptr %31, align 8, !tbaa !254
  %33 = load i32, ptr %17, align 8, !tbaa !44
  %34 = icmp eq i32 %33, %8
  %35 = getelementptr inbounds nuw i8, ptr %17, i64 4
  %36 = load i32, ptr %35, align 4
  %37 = icmp eq i32 %36, 6
  %38 = select i1 %34, i1 %37, i1 false
  br i1 %38, label %39, label %_ZNK8seq_util3str9is_stringEPK4exprR7zstring.exit

39:                                               ; preds = %_ZNK8seq_util3str10is_extractEPK4expr.exit.i
  %40 = getelementptr inbounds nuw i8, ptr %1, i64 24
  %41 = load i32, ptr %40, align 8, !tbaa !191
  %42 = icmp eq i32 %41, 3
  br i1 %42, label %43, label %_ZNK8seq_util3str9is_stringEPK4exprR7zstring.exit

43:                                               ; preds = %39
  %44 = getelementptr inbounds nuw i8, ptr %1, i64 40
  %45 = load ptr, ptr %44, align 8, !tbaa !178
  store ptr %45, ptr %30, align 8, !tbaa !178
  %46 = getelementptr inbounds nuw i8, ptr %1, i64 48
  %47 = load ptr, ptr %46, align 8, !tbaa !178
  store ptr %47, ptr %32, align 8, !tbaa !178
  call void @llvm.lifetime.start.p0(i64 16, ptr nonnull %3) #26
  %48 = getelementptr inbounds nuw i8, ptr %4, i64 8
  %49 = load ptr, ptr %48, align 8, !tbaa !222
  call void @_ZN10arith_utilC1ER11ast_manager(ptr noundef nonnull align 8 dereferenceable(16) %3, ptr noundef nonnull align 8 dereferenceable(976) %49)
  %50 = load ptr, ptr %31, align 8, !tbaa !254
  %51 = load ptr, ptr %50, align 8, !tbaa !178
  %52 = getelementptr inbounds nuw i8, ptr %0, i64 24
  %53 = load ptr, ptr %52, align 8, !tbaa !255
  %54 = call noundef zeroext i1 @_ZNK10arith_util11is_unsignedEPK4exprRj(ptr noundef nonnull align 8 dereferenceable(16) %3, ptr noundef %51, ptr noundef nonnull align 4 dereferenceable(4) %53)
  br i1 %54, label %55, label %58

55:                                               ; preds = %43
  %56 = load ptr, ptr %52, align 8, !tbaa !255
  %57 = load i32, ptr %56, align 4, !tbaa !29
  br label %58

58:                                               ; preds = %43, %55
  %59 = phi i32 [ %57, %55 ], [ -1, %43 ]
  call void @llvm.lifetime.end.p0(i64 16, ptr nonnull %3) #26
  br label %_ZNK8seq_util3str9is_stringEPK4exprR7zstring.exit.thread

_ZNK8seq_util3str9is_stringEPK4exprR7zstring.exit: ; preds = %13, %39, %_ZNK8seq_util3str10is_extractEPK4expr.exit.i
  %60 = getelementptr inbounds nuw i8, ptr %0, i64 32
  %61 = load ptr, ptr %60, align 8, !tbaa !256
  %62 = getelementptr inbounds nuw i8, ptr %1, i64 16
  %63 = load ptr, ptr %62, align 8, !tbaa !186
  %64 = tail call noundef zeroext i1 @_ZNK8seq_util3str9is_stringEPK9func_declR7zstring(ptr noundef nonnull readonly align 8 dereferenceable(20) %4, ptr noundef %63, ptr noundef nonnull align 8 dereferenceable(80) %61)
  br i1 %64, label %65, label %_ZNK8seq_util3str9is_stringEPK4exprR7zstring.exit.thread

65:                                               ; preds = %_ZNK8seq_util3str9is_stringEPK4exprR7zstring.exit
  %66 = load ptr, ptr %60, align 8, !tbaa !256
  %67 = getelementptr inbounds nuw i8, ptr %66, i64 8
  %68 = load i32, ptr %67, align 8, !tbaa !164
  br label %_ZNK8seq_util3str9is_stringEPK4exprR7zstring.exit.thread

_ZNK8seq_util3str9is_stringEPK4exprR7zstring.exit.thread: ; preds = %6, %_ZNK8seq_util3str9is_stringEPK4exprR7zstring.exit, %_ZNK8seq_util3str5is_atEPK4expr.exit, %_ZNK8seq_util3str7is_unitEPK4expr.exit, %2, %65, %58
  %.0 = phi i32 [ %59, %58 ], [ %68, %65 ], [ 0, %2 ], [ 1, %_ZNK8seq_util3str7is_unitEPK4expr.exit ], [ 1, %_ZNK8seq_util3str5is_atEPK4expr.exit ], [ -1, %_ZNK8seq_util3str9is_stringEPK4exprR7zstring.exit ], [ -1, %6 ]
  ret i32 %.0
}